(lp0
(lp1
(lp2
S'b'
p3
aS'_'
p4
ag3
ag4
ag3
ag4
ag3
ag4
ag4
ag3
ag4
ag3
ag4
ag3
ag4
ag3
ag3
ag4
ag3
ag4
ag3
ag4
ag4
ag4
ag4
ag4
ag4
ag4
ag4
ag4
ag4
ag3
ag4
ag4
ag4
ag4
ag4
ag4
ag4
ag4
ag4
aS'w'
p5
ag4
ag5
ag4
ag5
ag4
ag5
ag5
ag4
ag5
ag4
ag5
ag4
ag5
ag4
ag4
ag5
ag4
ag5
ag4
ag5
ag4
ag5
aa(lp6
g3
ag4
ag3
ag4
ag3
ag4
ag3
ag4
ag4
ag3
ag4
ag3
ag4
ag3
ag4
ag3
ag3
ag4
ag3
ag4
ag3
ag4
ag4
ag4
ag4
ag4
ag4
ag4
ag4
ag4
ag4
ag3
ag5
ag4
ag4
ag4
ag4
ag4
ag4
ag4
ag4
ag4
ag4
ag5
ag4
ag5
ag4
ag5
ag5
ag4
ag5
ag4
ag5
ag4
ag5
ag4
ag4
ag5
ag4
ag5
ag4
ag5
ag4
ag5
aa(lp7
g3
ag4
ag3
ag4
ag3
ag4
ag3
ag4
ag4
ag3
ag4
ag3
ag4
ag3
ag4
ag3
ag3
ag4
ag3
ag4
ag3
ag4
ag4
ag4
ag4
ag4
ag4
ag4
ag4
ag4
ag4
ag3
ag4
ag4
ag4
ag4
ag5
ag4
ag4
ag4
ag4
ag5
ag4
ag5
ag4
ag4
ag4
ag5
ag5
ag4
ag5
ag4
ag5
ag4
ag5
ag4
ag4
ag5
ag4
ag5
ag4
ag5
ag4
ag5
aaa(lp8
(lp9
g3
ag4
ag3
ag4
ag3
ag4
ag3
ag4
ag4
ag3
ag4
ag3
ag4
ag3
ag4
ag3
ag3
ag4
ag3
ag4
ag3
ag4
ag4
ag4
ag4
ag4
ag4
ag4
ag4
ag4
ag4
ag3
ag5
ag4
ag4
ag4
ag4
ag4
ag4
ag4
ag4
ag4
ag4
ag5
ag4
ag5
ag4
ag5
ag5
ag4
ag5
ag4
ag5
ag4
ag5
ag4
ag4
ag5
ag4
ag5
ag4
ag5
ag4
ag5
aa(lp10
g3
ag4
ag3
ag4
ag3
ag4
ag3
ag4
ag4
ag3
ag4
ag3
ag4
ag4
ag4
ag3
ag3
ag4
ag3
ag4
ag3
ag4
ag3
ag4
ag4
ag4
ag4
ag4
ag4
ag4
ag4
ag3
ag5
ag4
ag4
ag4
ag4
ag4
ag4
ag4
ag4
ag4
ag4
ag5
ag4
ag5
ag4
ag5
ag5
ag4
ag5
ag4
ag5
ag4
ag5
ag4
ag4
ag5
ag4
ag5
ag4
ag5
ag4
ag5
aa(lp11
g3
ag4
ag3
ag4
ag3
ag4
ag3
ag4
ag4
ag3
ag4
ag3
ag4
ag3
ag4
ag3
ag3
ag4
ag3
ag4
ag4
ag4
ag4
ag4
ag4
ag4
ag4
ag3
ag4
ag4
ag4
ag3
ag5
ag4
ag4
ag4
ag4
ag4
ag4
ag4
ag4
ag4
ag4
ag5
ag4
ag5
ag4
ag5
ag5
ag4
ag5
ag4
ag5
ag4
ag5
ag4
ag4
ag5
ag4
ag5
ag4
ag5
ag4
ag5
aaa(lp12
(lp13
g3
ag4
ag3
ag4
ag3
ag4
ag3
ag4
ag4
ag3
ag4
ag3
ag4
ag3
ag4
ag4
ag3
ag4
ag3
ag4
ag3
ag4
ag3
ag4
ag4
ag4
ag4
ag4
ag4
ag4
ag4
ag3
ag5
ag4
ag4
ag4
ag4
ag4
ag4
ag4
ag4
ag4
ag4
ag5
ag4
ag5
ag4
ag5
ag5
ag4
ag5
ag4
ag5
ag4
ag5
ag4
ag4
ag5
ag4
ag5
ag4
ag5
ag4
ag5
aa(lp14
g3
ag4
ag3
ag4
ag3
ag4
ag3
ag4
ag4
ag3
ag4
ag3
ag4
ag3
ag4
ag4
ag3
ag4
ag3
ag4
ag3
ag4
ag3
ag4
ag4
ag5
ag4
ag4
ag4
ag4
ag4
ag3
ag4
ag4
ag4
ag4
ag4
ag4
ag4
ag4
ag4
ag4
ag4
ag5
ag4
ag5
ag4
ag5
ag5
ag4
ag5
ag4
ag5
ag4
ag5
ag4
ag4
ag5
ag4
ag5
ag4
ag5
ag4
ag5
aa(lp15
g3
ag4
ag3
ag4
ag3
ag4
ag3
ag4
ag4
ag3
ag4
ag3
ag4
ag3
ag4
ag4
ag3
ag4
ag3
ag4
ag3
ag4
ag3
ag4
ag4
ag4
ag4
ag4
ag4
ag4
ag4
ag3
ag5
ag4
ag4
ag4
ag4
ag4
ag4
ag4
ag4
ag5
ag4
ag5
ag4
ag5
ag4
ag5
ag5
ag4
ag4
ag4
ag5
ag4
ag5
ag4
ag4
ag5
ag4
ag5
ag4
ag5
ag4
ag5
aaa(lp16
(lp17
g3
ag4
ag3
ag4
ag3
ag4
ag3
ag4
ag4
ag3
ag4
ag3
ag4
ag3
ag4
ag4
ag3
ag4
ag3
ag4
ag3
ag4
ag3
ag4
ag4
ag4
ag4
ag4
ag4
ag4
ag4
ag3
ag5
ag4
ag4
ag4
ag4
ag4
ag5
ag4
ag4
ag4
ag4
ag5
ag4
ag4
ag4
ag5
ag5
ag4
ag5
ag4
ag5
ag4
ag5
ag4
ag4
ag5
ag4
ag5
ag4
ag5
ag4
ag5
aa(lp18
g3
ag4
ag3
ag4
ag3
ag4
ag3
ag4
ag4
ag3
ag4
ag3
ag4
ag3
ag4
ag4
ag3
ag4
ag3
ag4
ag3
ag4
ag3
ag4
ag4
ag4
ag4
ag4
ag4
ag4
ag4
ag4
ag5
ag4
ag4
ag4
ag4
ag4
ag4
ag4
ag4
ag4
ag4
ag5
ag4
ag3
ag4
ag5
ag5
ag4
ag5
ag4
ag5
ag4
ag5
ag4
ag4
ag5
ag4
ag5
ag4
ag5
ag4
ag5
aa(lp19
g3
ag4
ag3
ag4
ag3
ag4
ag3
ag4
ag4
ag3
ag4
ag3
ag4
ag3
ag4
ag4
ag3
ag4
ag3
ag4
ag3
ag4
ag3
ag4
ag4
ag4
ag4
ag4
ag4
ag4
ag4
ag4
ag5
ag4
ag4
ag4
ag4
ag4
ag4
ag4
ag4
ag4
ag4
ag5
ag4
ag3
ag4
ag5
ag5
ag4
ag5
ag4
ag5
ag4
ag5
ag4
ag4
ag5
ag4
ag5
ag4
ag5
ag4
ag5
aaa(lp20
(lp21
g3
ag4
ag3
ag4
ag3
ag4
ag3
ag4
ag4
ag3
ag4
ag3
ag4
ag3
ag4
ag4
ag3
ag4
ag3
ag4
ag3
ag4
ag3
ag4
ag4
ag4
ag4
ag4
ag4
ag4
ag4
ag4
ag5
ag4
ag4
ag4
ag4
ag4
ag4
ag4
ag4
ag4
ag4
ag5
ag4
ag3
ag4
ag5
ag5
ag4
ag5
ag4
ag5
ag4
ag5
ag4
ag4
ag5
ag4
ag5
ag4
ag5
ag4
ag5
aa(lp22
g3
ag4
ag3
ag4
ag3
ag4
ag3
ag4
ag4
ag3
ag4
ag3
ag4
ag3
ag4
ag4
ag3
ag4
ag3
ag4
ag3
ag4
ag3
ag4
ag4
ag4
ag4
ag4
ag4
ag4
ag4
ag4
ag5
ag4
ag4
ag4
ag4
ag4
ag5
ag4
ag4
ag4
ag4
ag5
ag4
ag4
ag4
ag5
ag5
ag4
ag5
ag4
ag4
ag4
ag5
ag4
ag4
ag5
ag4
ag5
ag4
ag5
ag4
ag5
aa(lp23
g3
ag4
ag3
ag4
ag3
ag4
ag3
ag4
ag4
ag3
ag4
ag3
ag4
ag3
ag4
ag4
ag3
ag4
ag3
ag4
ag3
ag4
ag3
ag4
ag4
ag4
ag4
ag4
ag4
ag4
ag4
ag4
ag5
ag4
ag4
ag4
ag4
ag4
ag5
ag4
ag4
ag4
ag4
ag5
ag4
ag4
ag4
ag5
ag5
ag4
ag5
ag4
ag4
ag4
ag5
ag4
ag4
ag5
ag4
ag5
ag4
ag5
ag4
ag5
aaa(lp24
(lp25
g3
ag4
ag3
ag4
ag3
ag4
ag3
ag4
ag4
ag3
ag4
ag3
ag4
ag3
ag4
ag4
ag3
ag4
ag3
ag4
ag3
ag4
ag3
ag4
ag4
ag4
ag4
ag4
ag4
ag4
ag4
ag4
ag5
ag4
ag4
ag4
ag4
ag4
ag5
ag4
ag4
ag4
ag4
ag5
ag4
ag4
ag4
ag5
ag5
ag4
ag5
ag4
ag4
ag4
ag5
ag4
ag4
ag5
ag4
ag5
ag4
ag5
ag4
ag5
aa(lp26
g3
ag4
ag3
ag4
ag3
ag4
ag4
ag4
ag4
ag3
ag4
ag3
ag4
ag3
ag4
ag3
ag3
ag4
ag3
ag4
ag3
ag4
ag3
ag4
ag4
ag4
ag4
ag4
ag4
ag4
ag4
ag4
ag5
ag4
ag4
ag4
ag4
ag4
ag5
ag4
ag4
ag4
ag4
ag5
ag4
ag4
ag4
ag5
ag5
ag4
ag5
ag4
ag4
ag4
ag5
ag4
ag4
ag5
ag4
ag5
ag4
ag5
ag4
ag5
aa(lp27
g3
ag4
ag3
ag4
ag3
ag4
ag4
ag4
ag4
ag3
ag4
ag3
ag4
ag3
ag4
ag3
ag3
ag4
ag3
ag4
ag3
ag4
ag3
ag4
ag4
ag4
ag4
ag4
ag4
ag4
ag4
ag4
ag5
ag4
ag4
ag4
ag4
ag4
ag5
ag4
ag4
ag4
ag4
ag5
ag4
ag4
ag4
ag5
ag5
ag4
ag5
ag4
ag4
ag4
ag5
ag4
ag4
ag5
ag4
ag5
ag4
ag5
ag4
ag5
aaa(lp28
(lp29
g3
ag4
ag3
ag4
ag3
ag4
ag3
ag4
ag4
ag3
ag4
ag3
ag4
ag3
ag4
ag4
ag3
ag4
ag3
ag4
ag4
ag4
ag3
ag4
ag4
ag4
ag4
ag4
ag4
ag3
ag4
ag4
ag5
ag4
ag4
ag4
ag4
ag4
ag5
ag4
ag4
ag4
ag4
ag5
ag4
ag4
ag4
ag5
ag5
ag4
ag5
ag4
ag4
ag4
ag5
ag4
ag4
ag5
ag4
ag5
ag4
ag5
ag4
ag5
aa(lp30
g3
ag4
ag3
ag4
ag3
ag4
ag3
ag4
ag4
ag3
ag4
ag3
ag4
ag3
ag4
ag4
ag3
ag4
ag3
ag4
ag5
ag4
ag3
ag4
ag4
ag4
ag4
ag4
ag4
ag4
ag4
ag4
ag5
ag4
ag4
ag4
ag4
ag4
ag4
ag4
ag4
ag4
ag4
ag5
ag4
ag4
ag4
ag5
ag5
ag4
ag5
ag4
ag4
ag4
ag5
ag4
ag4
ag5
ag4
ag5
ag4
ag5
ag4
ag5
aa(lp31
g3
ag4
ag3
ag4
ag3
ag4
ag3
ag4
ag4
ag3
ag4
ag3
ag4
ag3
ag4
ag4
ag3
ag4
ag3
ag4
ag5
ag4
ag3
ag4
ag4
ag4
ag4
ag4
ag4
ag4
ag4
ag4
ag5
ag4
ag4
ag4
ag4
ag4
ag4
ag4
ag4
ag4
ag4
ag5
ag4
ag4
ag4
ag5
ag5
ag4
ag5
ag4
ag4
ag4
ag5
ag4
ag4
ag5
ag4
ag5
ag4
ag5
ag4
ag5
aaa(lp32
(lp33
g3
ag4
ag3
ag4
ag3
ag4
ag3
ag4
ag4
ag3
ag4
ag3
ag4
ag3
ag4
ag4
ag3
ag4
ag3
ag4
ag5
ag4
ag3
ag4
ag4
ag4
ag4
ag4
ag4
ag4
ag4
ag4
ag5
ag4
ag4
ag4
ag4
ag4
ag4
ag4
ag4
ag4
ag4
ag5
ag4
ag4
ag4
ag5
ag5
ag4
ag5
ag4
ag4
ag4
ag5
ag4
ag4
ag5
ag4
ag5
ag4
ag5
ag4
ag5
aa(lp34
g3
ag4
ag3
ag4
ag3
ag4
ag3
ag4
ag4
ag3
ag4
ag4
ag4
ag3
ag4
ag4
ag3
ag4
ag3
ag4
ag4
ag4
ag3
ag4
ag4
ag4
ag4
ag4
ag4
ag3
ag4
ag4
ag5
ag4
ag4
ag4
ag4
ag4
ag4
ag4
ag4
ag4
ag4
ag5
ag4
ag4
ag4
ag5
ag5
ag4
ag5
ag4
ag4
ag4
ag5
ag4
ag4
ag5
ag4
ag5
ag4
ag5
ag4
ag5
aa(lp35
g3
ag4
ag3
ag4
ag3
ag4
ag3
ag4
ag4
ag3
ag4
ag3
ag4
ag4
ag4
ag4
ag3
ag4
ag3
ag4
ag4
ag4
ag3
ag4
ag4
ag4
ag4
ag3
ag4
ag4
ag4
ag4
ag5
ag4
ag4
ag4
ag4
ag4
ag4
ag4
ag4
ag4
ag4
ag5
ag4
ag4
ag4
ag5
ag5
ag4
ag5
ag4
ag4
ag4
ag5
ag4
ag4
ag5
ag4
ag5
ag4
ag5
ag4
ag5
aaa(lp36
(lp37
g3
ag4
ag3
ag4
ag3
ag4
ag3
ag4
ag4
ag3
ag4
ag4
ag4
ag3
ag4
ag4
ag3
ag4
ag3
ag4
ag4
ag4
ag3
ag4
ag4
ag4
ag4
ag4
ag4
ag3
ag4
ag4
ag5
ag4
ag4
ag4
ag4
ag4
ag4
ag4
ag4
ag4
ag4
ag5
ag4
ag4
ag4
ag5
ag5
ag4
ag5
ag4
ag4
ag4
ag5
ag4
ag4
ag5
ag4
ag5
ag4
ag5
ag4
ag5
aa(lp38
g3
ag4
ag3
ag4
ag3
ag4
ag3
ag4
ag4
ag3
ag4
ag4
ag4
ag3
ag4
ag4
ag3
ag4
ag3
ag4
ag4
ag4
ag3
ag4
ag4
ag5
ag4
ag4
ag4
ag3
ag4
ag4
ag4
ag4
ag4
ag4
ag4
ag4
ag4
ag4
ag4
ag4
ag4
ag5
ag4
ag4
ag4
ag5
ag5
ag4
ag5
ag4
ag4
ag4
ag5
ag4
ag4
ag5
ag4
ag5
ag4
ag5
ag4
ag5
aa(lp39
g3
ag4
ag3
ag4
ag3
ag4
ag3
ag4
ag4
ag3
ag4
ag4
ag4
ag3
ag4
ag4
ag3
ag4
ag3
ag4
ag4
ag4
ag3
ag4
ag4
ag4
ag4
ag4
ag4
ag3
ag4
ag4
ag5
ag4
ag4
ag4
ag5
ag4
ag4
ag4
ag4
ag4
ag4
ag4
ag4
ag4
ag4
ag5
ag5
ag4
ag5
ag4
ag4
ag4
ag5
ag4
ag4
ag5
ag4
ag5
ag4
ag5
ag4
ag5
aaa(lp40
(lp41
g3
ag4
ag3
ag4
ag3
ag4
ag3
ag4
ag4
ag3
ag4
ag4
ag4
ag3
ag4
ag4
ag3
ag4
ag3
ag4
ag4
ag4
ag3
ag4
ag4
ag4
ag4
ag4
ag4
ag3
ag4
ag4
ag5
ag4
ag5
ag4
ag4
ag4
ag4
ag4
ag4
ag4
ag4
ag4
ag4
ag4
ag4
ag5
ag5
ag4
ag5
ag4
ag4
ag4
ag5
ag4
ag4
ag5
ag4
ag5
ag4
ag5
ag4
ag5
aa(lp42
g3
ag4
ag4
ag4
ag3
ag4
ag3
ag4
ag4
ag3
ag4
ag3
ag4
ag3
ag4
ag4
ag3
ag4
ag3
ag4
ag4
ag4
ag3
ag4
ag4
ag4
ag4
ag4
ag4
ag3
ag4
ag4
ag5
ag4
ag5
ag4
ag4
ag4
ag4
ag4
ag4
ag4
ag4
ag4
ag4
ag4
ag4
ag5
ag5
ag4
ag5
ag4
ag4
ag4
ag5
ag4
ag4
ag5
ag4
ag5
ag4
ag5
ag4
ag5
aa(lp43
g3
ag4
ag3
ag4
ag3
ag4
ag4
ag4
ag4
ag3
ag4
ag4
ag4
ag3
ag4
ag3
ag3
ag4
ag3
ag4
ag4
ag4
ag3
ag4
ag4
ag4
ag4
ag4
ag4
ag3
ag4
ag4
ag5
ag4
ag5
ag4
ag4
ag4
ag4
ag4
ag4
ag4
ag4
ag4
ag4
ag4
ag4
ag5
ag5
ag4
ag5
ag4
ag4
ag4
ag5
ag4
ag4
ag5
ag4
ag5
ag4
ag5
ag4
ag5
aaa(lp44
(lp45
g3
ag4
ag3
ag4
ag3
ag4
ag3
ag4
ag4
ag3
ag4
ag4
ag4
ag3
ag4
ag4
ag3
ag4
ag4
ag4
ag4
ag4
ag3
ag4
ag4
ag3
ag4
ag4
ag4
ag3
ag4
ag4
ag5
ag4
ag5
ag4
ag4
ag4
ag4
ag4
ag4
ag4
ag4
ag4
ag4
ag4
ag4
ag5
ag5
ag4
ag5
ag4
ag4
ag4
ag5
ag4
ag4
ag5
ag4
ag5
ag4
ag5
ag4
ag5
aa(lp46
g3
ag4
ag3
ag4
ag3
ag4
ag3
ag4
ag4
ag3
ag4
ag4
ag4
ag3
ag4
ag4
ag3
ag4
ag5
ag4
ag4
ag4
ag3
ag4
ag4
ag4
ag4
ag4
ag4
ag3
ag4
ag4
ag4
ag4
ag5
ag4
ag4
ag4
ag4
ag4
ag4
ag4
ag4
ag4
ag4
ag4
ag4
ag5
ag5
ag4
ag5
ag4
ag4
ag4
ag5
ag4
ag4
ag5
ag4
ag5
ag4
ag5
ag4
ag5
aa(lp47
g3
ag4
ag3
ag4
ag3
ag4
ag3
ag4
ag4
ag3
ag4
ag4
ag4
ag3
ag4
ag4
ag3
ag4
ag5
ag4
ag4
ag4
ag3
ag4
ag4
ag4
ag4
ag4
ag4
ag3
ag4
ag4
ag4
ag4
ag5
ag4
ag4
ag4
ag4
ag4
ag4
ag4
ag4
ag4
ag4
ag4
ag4
ag5
ag5
ag4
ag5
ag4
ag4
ag4
ag5
ag4
ag4
ag5
ag4
ag5
ag4
ag5
ag4
ag5
aaa(lp48
(lp49
g3
ag4
ag3
ag4
ag3
ag4
ag3
ag4
ag4
ag3
ag4
ag4
ag4
ag3
ag4
ag4
ag3
ag4
ag5
ag4
ag4
ag4
ag3
ag4
ag4
ag4
ag4
ag4
ag4
ag3
ag4
ag4
ag4
ag4
ag5
ag4
ag4
ag4
ag4
ag4
ag4
ag4
ag4
ag4
ag4
ag4
ag4
ag5
ag5
ag4
ag5
ag4
ag4
ag4
ag5
ag4
ag4
ag5
ag4
ag5
ag4
ag5
ag4
ag5
aa(lp50
g3
ag4
ag3
ag4
ag3
ag4
ag3
ag4
ag4
ag4
ag4
ag4
ag4
ag3
ag4
ag4
ag3
ag4
ag4
ag4
ag4
ag4
ag3
ag4
ag4
ag4
ag4
ag4
ag4
ag3
ag4
ag4
ag4
ag4
ag4
ag4
ag4
ag4
ag4
ag4
ag4
ag3
ag4
ag4
ag4
ag4
ag4
ag5
ag5
ag4
ag5
ag4
ag4
ag4
ag5
ag4
ag4
ag5
ag4
ag5
ag4
ag5
ag4
ag5
aa(lp51
g3
ag4
ag3
ag4
ag3
ag4
ag3
ag4
ag4
ag4
ag4
ag4
ag4
ag3
ag4
ag4
ag3
ag4
ag4
ag4
ag4
ag4
ag3
ag4
ag4
ag4
ag4
ag4
ag4
ag3
ag4
ag4
ag4
ag4
ag4
ag4
ag4
ag4
ag4
ag4
ag4
ag3
ag4
ag4
ag4
ag4
ag4
ag5
ag5
ag4
ag5
ag4
ag4
ag4
ag5
ag4
ag4
ag5
ag4
ag5
ag4
ag5
ag4
ag5
aaa(lp52
(lp53
g3
ag4
ag3
ag4
ag3
ag4
ag3
ag4
ag4
ag4
ag4
ag4
ag4
ag3
ag4
ag4
ag3
ag4
ag4
ag4
ag4
ag4
ag3
ag4
ag4
ag4
ag4
ag4
ag4
ag3
ag4
ag4
ag4
ag4
ag4
ag4
ag4
ag4
ag4
ag4
ag4
ag3
ag4
ag4
ag4
ag4
ag4
ag5
ag5
ag4
ag5
ag4
ag4
ag4
ag5
ag4
ag4
ag5
ag4
ag5
ag4
ag5
ag4
ag5
aa(lp54
g3
ag4
ag3
ag4
ag3
ag4
ag3
ag4
ag4
ag4
ag4
ag4
ag4
ag3
ag4
ag4
ag3
ag4
ag4
ag4
ag4
ag4
ag3
ag4
ag4
ag4
ag4
ag4
ag4
ag3
ag4
ag4
ag4
ag4
ag5
ag4
ag4
ag4
ag4
ag4
ag4
ag4
ag4
ag4
ag4
ag4
ag4
ag5
ag4
ag4
ag5
ag4
ag4
ag4
ag5
ag4
ag4
ag5
ag4
ag5
ag4
ag5
ag4
ag5
aa(lp55
g3
ag4
ag3
ag4
ag3
ag4
ag3
ag4
ag4
ag4
ag4
ag4
ag4
ag3
ag4
ag4
ag3
ag4
ag4
ag4
ag4
ag4
ag3
ag4
ag4
ag4
ag4
ag4
ag4
ag3
ag4
ag4
ag5
ag4
ag4
ag4
ag4
ag4
ag4
ag4
ag4
ag4
ag4
ag4
ag4
ag4
ag4
ag5
ag5
ag4
ag4
ag4
ag4
ag4
ag5
ag4
ag4
ag5
ag4
ag5
ag4
ag5
ag4
ag5
aaa(lp56
(lp57
g3
ag4
ag3
ag4
ag3
ag4
ag3
ag4
ag4
ag4
ag4
ag4
ag4
ag3
ag4
ag4
ag3
ag4
ag4
ag4
ag4
ag4
ag3
ag4
ag4
ag4
ag4
ag4
ag4
ag3
ag4
ag4
ag4
ag4
ag5
ag4
ag4
ag4
ag4
ag4
ag4
ag4
ag4
ag4
ag4
ag4
ag4
ag5
ag4
ag4
ag5
ag4
ag4
ag4
ag5
ag4
ag4
ag5
ag4
ag5
ag4
ag5
ag4
ag5
aa(lp58
g4
ag4
ag3
ag4
ag3
ag4
ag3
ag4
ag4
ag3
ag4
ag4
ag4
ag3
ag4
ag4
ag3
ag4
ag4
ag4
ag4
ag4
ag3
ag4
ag4
ag4
ag4
ag4
ag4
ag3
ag4
ag4
ag4
ag4
ag5
ag4
ag4
ag4
ag4
ag4
ag4
ag4
ag4
ag4
ag4
ag4
ag4
ag5
ag4
ag4
ag5
ag4
ag4
ag4
ag5
ag4
ag4
ag5
ag4
ag5
ag4
ag5
ag4
ag5
aa(lp59
g3
ag4
ag3
ag4
ag3
ag4
ag4
ag4
ag4
ag4
ag4
ag4
ag4
ag3
ag4
ag3
ag3
ag4
ag4
ag4
ag4
ag4
ag3
ag4
ag4
ag4
ag4
ag4
ag4
ag3
ag4
ag4
ag4
ag4
ag5
ag4
ag4
ag4
ag4
ag4
ag4
ag4
ag4
ag4
ag4
ag4
ag4
ag5
ag4
ag4
ag5
ag4
ag4
ag4
ag5
ag4
ag4
ag5
ag4
ag5
ag4
ag5
ag4
ag5
aaa(lp60
(lp61
g3
ag4
ag3
ag4
ag3
ag4
ag3
ag4
ag4
ag4
ag4
ag4
ag4
ag3
ag4
ag4
ag3
ag4
ag4
ag4
ag4
ag4
ag3
ag4
ag4
ag4
ag4
ag4
ag4
ag4
ag4
ag4
ag4
ag4
ag5
ag4
ag4
ag4
ag3
ag4
ag4
ag4
ag4
ag4
ag4
ag4
ag4
ag5
ag4
ag4
ag5
ag4
ag4
ag4
ag5
ag4
ag4
ag5
ag4
ag5
ag4
ag5
ag4
ag5
aa(lp62
g3
ag4
ag3
ag4
ag3
ag4
ag3
ag4
ag4
ag4
ag4
ag4
ag4
ag3
ag4
ag5
ag3
ag4
ag4
ag4
ag4
ag4
ag4
ag4
ag4
ag4
ag4
ag4
ag4
ag4
ag4
ag4
ag4
ag4
ag5
ag4
ag4
ag4
ag4
ag4
ag4
ag4
ag4
ag4
ag4
ag4
ag4
ag4
ag4
ag4
ag5
ag4
ag4
ag4
ag5
ag4
ag4
ag5
ag4
ag5
ag4
ag5
ag4
ag5
aa(lp63
g3
ag4
ag3
ag4
ag3
ag4
ag3
ag4
ag4
ag4
ag4
ag4
ag4
ag3
ag4
ag4
ag3
ag4
ag4
ag4
ag4
ag4
ag3
ag4
ag4
ag4
ag4
ag4
ag4
ag5
ag4
ag4
ag4
ag4
ag5
ag4
ag4
ag4
ag4
ag4
ag4
ag4
ag4
ag4
ag4
ag4
ag4
ag4
ag4
ag4
ag5
ag4
ag4
ag4
ag5
ag4
ag4
ag5
ag4
ag5
ag4
ag5
ag4
ag5
aaa(lp64
(lp65
g3
ag4
ag3
ag4
ag3
ag4
ag3
ag4
ag4
ag4
ag4
ag4
ag4
ag3
ag4
ag5
ag3
ag4
ag4
ag4
ag4
ag4
ag4
ag4
ag4
ag4
ag4
ag4
ag4
ag4
ag4
ag4
ag4
ag4
ag5
ag4
ag4
ag4
ag4
ag4
ag4
ag4
ag4
ag4
ag4
ag4
ag4
ag4
ag4
ag4
ag5
ag4
ag4
ag4
ag5
ag4
ag4
ag5
ag4
ag5
ag4
ag5
ag4
ag5
aa(lp66
g4
ag4
ag3
ag4
ag3
ag4
ag3
ag4
ag4
ag3
ag4
ag4
ag4
ag3
ag4
ag5
ag3
ag4
ag4
ag4
ag4
ag4
ag4
ag4
ag4
ag4
ag4
ag4
ag4
ag4
ag4
ag4
ag4
ag4
ag5
ag4
ag4
ag4
ag4
ag4
ag4
ag4
ag4
ag4
ag4
ag4
ag4
ag4
ag4
ag4
ag5
ag4
ag4
ag4
ag5
ag4
ag4
ag5
ag4
ag5
ag4
ag5
ag4
ag5
aa(lp67
g3
ag4
ag3
ag4
ag3
ag4
ag3
ag4
ag4
ag4
ag4
ag4
ag4
ag4
ag4
ag5
ag3
ag4
ag4
ag4
ag3
ag4
ag4
ag4
ag4
ag4
ag4
ag4
ag4
ag4
ag4
ag4
ag4
ag4
ag5
ag4
ag4
ag4
ag4
ag4
ag4
ag4
ag4
ag4
ag4
ag4
ag4
ag4
ag4
ag4
ag5
ag4
ag4
ag4
ag5
ag4
ag4
ag5
ag4
ag5
ag4
ag5
ag4
ag5
aaa(lp68
(lp69
g4
ag4
ag3
ag4
ag3
ag4
ag3
ag4
ag4
ag3
ag4
ag4
ag4
ag3
ag4
ag5
ag3
ag4
ag4
ag4
ag4
ag4
ag4
ag4
ag4
ag4
ag4
ag4
ag4
ag4
ag4
ag4
ag4
ag4
ag5
ag4
ag4
ag4
ag4
ag4
ag4
ag4
ag4
ag4
ag4
ag4
ag4
ag4
ag4
ag4
ag5
ag4
ag4
ag4
ag5
ag4
ag4
ag5
ag4
ag5
ag4
ag5
ag4
ag5
aa(lp70
g4
ag4
ag3
ag4
ag3
ag4
ag3
ag4
ag4
ag3
ag4
ag4
ag4
ag3
ag4
ag5
ag3
ag4
ag4
ag4
ag4
ag4
ag4
ag4
ag4
ag5
ag4
ag4
ag4
ag4
ag4
ag4
ag4
ag4
ag4
ag4
ag4
ag4
ag4
ag4
ag4
ag4
ag4
ag4
ag4
ag4
ag4
ag4
ag4
ag4
ag5
ag4
ag4
ag4
ag5
ag4
ag4
ag5
ag4
ag5
ag4
ag5
ag4
ag5
aa(lp71
g4
ag4
ag3
ag4
ag3
ag4
ag3
ag4
ag4
ag3
ag4
ag4
ag4
ag3
ag4
ag5
ag3
ag4
ag4
ag4
ag4
ag4
ag4
ag4
ag4
ag4
ag4
ag4
ag4
ag4
ag4
ag4
ag4
ag4
ag5
ag4
ag4
ag4
ag4
ag4
ag4
ag4
ag4
ag4
ag4
ag4
ag4
ag4
ag5
ag4
ag5
ag4
ag4
ag4
ag5
ag4
ag4
ag4
ag4
ag5
ag4
ag5
ag4
ag5
aaa(lp72
(lp73
g4
ag4
ag3
ag4
ag3
ag4
ag3
ag4
ag4
ag3
ag4
ag4
ag4
ag3
ag4
ag5
ag3
ag4
ag4
ag4
ag4
ag4
ag4
ag4
ag4
ag4
ag4
ag4
ag4
ag4
ag4
ag4
ag4
ag4
ag5
ag4
ag4
ag4
ag4
ag4
ag4
ag4
ag4
ag5
ag4
ag4
ag4
ag4
ag4
ag4
ag4
ag4
ag4
ag4
ag5
ag4
ag4
ag5
ag4
ag5
ag4
ag5
ag4
ag5
aa(lp74
g4
ag4
ag4
ag4
ag3
ag4
ag3
ag4
ag4
ag3
ag4
ag3
ag4
ag3
ag4
ag5
ag3
ag4
ag4
ag4
ag4
ag4
ag4
ag4
ag4
ag4
ag4
ag4
ag4
ag4
ag4
ag4
ag4
ag4
ag5
ag4
ag4
ag4
ag4
ag4
ag4
ag4
ag4
ag5
ag4
ag4
ag4
ag4
ag4
ag4
ag4
ag4
ag4
ag4
ag5
ag4
ag4
ag5
ag4
ag5
ag4
ag5
ag4
ag5
aa(lp75
g4
ag4
ag3
ag4
ag4
ag4
ag3
ag4
ag4
ag3
ag4
ag3
ag4
ag3
ag4
ag5
ag3
ag4
ag4
ag4
ag4
ag4
ag4
ag4
ag4
ag4
ag4
ag4
ag4
ag4
ag4
ag4
ag4
ag4
ag5
ag4
ag4
ag4
ag4
ag4
ag4
ag4
ag4
ag5
ag4
ag4
ag4
ag4
ag4
ag4
ag4
ag4
ag4
ag4
ag5
ag4
ag4
ag5
ag4
ag5
ag4
ag5
ag4
ag5
aaa(lp76
(lp77
g4
ag4
ag3
ag4
ag3
ag4
ag3
ag4
ag4
ag4
ag4
ag4
ag4
ag3
ag4
ag5
ag3
ag4
ag3
ag4
ag4
ag4
ag4
ag4
ag4
ag4
ag4
ag4
ag4
ag4
ag4
ag4
ag4
ag4
ag5
ag4
ag4
ag4
ag4
ag4
ag4
ag4
ag4
ag5
ag4
ag4
ag4
ag4
ag4
ag4
ag4
ag4
ag4
ag4
ag5
ag4
ag4
ag5
ag4
ag5
ag4
ag5
ag4
ag5
aa(lp78
g4
ag4
ag3
ag4
ag3
ag4
ag3
ag4
ag4
ag4
ag4
ag4
ag4
ag3
ag4
ag5
ag3
ag4
ag3
ag4
ag4
ag4
ag4
ag4
ag4
ag5
ag4
ag4
ag4
ag4
ag4
ag4
ag4
ag4
ag4
ag4
ag4
ag4
ag4
ag4
ag4
ag4
ag4
ag5
ag4
ag4
ag4
ag4
ag4
ag4
ag4
ag4
ag4
ag4
ag5
ag4
ag4
ag5
ag4
ag5
ag4
ag5
ag4
ag5
aa(lp79
g4
ag4
ag3
ag4
ag3
ag4
ag3
ag4
ag4
ag4
ag4
ag4
ag4
ag3
ag4
ag5
ag3
ag4
ag3
ag4
ag4
ag4
ag4
ag4
ag4
ag4
ag4
ag4
ag4
ag4
ag4
ag4
ag4
ag4
ag5
ag4
ag4
ag4
ag4
ag4
ag4
ag4
ag4
ag5
ag4
ag5
ag4
ag4
ag4
ag4
ag4
ag4
ag4
ag4
ag4
ag4
ag4
ag5
ag4
ag5
ag4
ag5
ag4
ag5
aaa(lp80
(lp81
g4
ag4
ag3
ag4
ag3
ag4
ag3
ag4
ag4
ag4
ag4
ag4
ag4
ag3
ag4
ag5
ag3
ag4
ag3
ag4
ag4
ag4
ag4
ag4
ag4
ag4
ag4
ag4
ag4
ag4
ag4
ag4
ag4
ag4
ag5
ag4
ag5
ag4
ag4
ag4
ag4
ag4
ag4
ag4
ag4
ag4
ag4
ag4
ag4
ag4
ag4
ag4
ag4
ag4
ag5
ag4
ag4
ag5
ag4
ag5
ag4
ag5
ag4
ag5
aa(lp82
g4
ag4
ag4
ag4
ag3
ag4
ag3
ag4
ag4
ag3
ag4
ag4
ag4
ag3
ag4
ag5
ag3
ag4
ag3
ag4
ag4
ag4
ag4
ag4
ag4
ag4
ag4
ag4
ag4
ag4
ag4
ag4
ag4
ag4
ag5
ag4
ag5
ag4
ag4
ag4
ag4
ag4
ag4
ag4
ag4
ag4
ag4
ag4
ag4
ag4
ag4
ag4
ag4
ag4
ag5
ag4
ag4
ag5
ag4
ag5
ag4
ag5
ag4
ag5
aa(lp83
g4
ag4
ag3
ag4
ag3
ag4
ag3
ag4
ag4
ag4
ag4
ag4
ag4
ag3
ag4
ag5
ag3
ag4
ag4
ag4
ag4
ag4
ag4
ag4
ag4
ag3
ag4
ag4
ag4
ag4
ag4
ag4
ag4
ag4
ag5
ag4
ag5
ag4
ag4
ag4
ag4
ag4
ag4
ag4
ag4
ag4
ag4
ag4
ag4
ag4
ag4
ag4
ag4
ag4
ag5
ag4
ag4
ag5
ag4
ag5
ag4
ag5
ag4
ag5
aaa(lp84
(lp85
g4
ag4
ag3
ag4
ag3
ag4
ag3
ag4
ag4
ag4
ag4
ag4
ag4
ag3
ag4
ag5
ag4
ag4
ag3
ag4
ag4
ag4
ag4
ag4
ag4
ag3
ag4
ag4
ag4
ag4
ag4
ag4
ag4
ag4
ag5
ag4
ag5
ag4
ag4
ag4
ag4
ag4
ag4
ag4
ag4
ag4
ag4
ag4
ag4
ag4
ag4
ag4
ag4
ag4
ag5
ag4
ag4
ag5
ag4
ag5
ag4
ag5
ag4
ag5
aa(lp86
g4
ag4
ag3
ag4
ag3
ag4
ag3
ag4
ag4
ag4
ag4
ag4
ag4
ag3
ag4
ag5
ag5
ag4
ag3
ag4
ag4
ag4
ag4
ag4
ag4
ag4
ag4
ag4
ag4
ag4
ag4
ag4
ag4
ag4
ag4
ag4
ag5
ag4
ag4
ag4
ag4
ag4
ag4
ag4
ag4
ag4
ag4
ag4
ag4
ag4
ag4
ag4
ag4
ag4
ag5
ag4
ag4
ag5
ag4
ag5
ag4
ag5
ag4
ag5
aa(lp87
g4
ag4
ag3
ag4
ag3
ag4
ag3
ag4
ag4
ag4
ag4
ag4
ag4
ag3
ag4
ag5
ag5
ag4
ag3
ag4
ag4
ag4
ag4
ag4
ag4
ag4
ag4
ag4
ag4
ag4
ag4
ag4
ag4
ag4
ag4
ag4
ag5
ag4
ag4
ag4
ag4
ag4
ag4
ag4
ag4
ag4
ag4
ag4
ag4
ag4
ag4
ag4
ag4
ag4
ag5
ag4
ag4
ag5
ag4
ag5
ag4
ag5
ag4
ag5
aaa(lp88
(lp89
g4
ag4
ag3
ag4
ag3
ag4
ag3
ag4
ag4
ag4
ag4
ag4
ag4
ag3
ag4
ag5
ag5
ag4
ag3
ag4
ag4
ag4
ag4
ag4
ag4
ag4
ag4
ag4
ag4
ag4
ag4
ag4
ag4
ag4
ag4
ag4
ag5
ag4
ag4
ag4
ag4
ag4
ag4
ag4
ag4
ag4
ag4
ag4
ag4
ag4
ag4
ag4
ag4
ag4
ag5
ag4
ag4
ag5
ag4
ag5
ag4
ag5
ag4
ag5
aa(lp90
g4
ag4
ag3
ag4
ag4
ag4
ag3
ag4
ag4
ag4
ag4
ag3
ag4
ag3
ag4
ag5
ag5
ag4
ag3
ag4
ag4
ag4
ag4
ag4
ag4
ag4
ag4
ag4
ag4
ag4
ag4
ag4
ag4
ag4
ag4
ag4
ag5
ag4
ag4
ag4
ag4
ag4
ag4
ag4
ag4
ag4
ag4
ag4
ag4
ag4
ag4
ag4
ag4
ag4
ag5
ag4
ag4
ag5
ag4
ag5
ag4
ag5
ag4
ag5
aa(lp91
g4
ag4
ag3
ag4
ag3
ag4
ag3
ag4
ag4
ag4
ag4
ag4
ag4
ag4
ag4
ag5
ag5
ag4
ag3
ag4
ag4
ag4
ag3
ag4
ag4
ag4
ag4
ag4
ag4
ag4
ag4
ag4
ag4
ag4
ag4
ag4
ag5
ag4
ag4
ag4
ag4
ag4
ag4
ag4
ag4
ag4
ag4
ag4
ag4
ag4
ag4
ag4
ag4
ag4
ag5
ag4
ag4
ag5
ag4
ag5
ag4
ag5
ag4
ag5
aaa(lp92
(lp93
g4
ag4
ag4
ag4
ag3
ag4
ag3
ag4
ag4
ag3
ag4
ag4
ag4
ag3
ag4
ag5
ag5
ag4
ag3
ag4
ag4
ag4
ag4
ag4
ag4
ag4
ag4
ag4
ag4
ag4
ag4
ag4
ag4
ag4
ag4
ag4
ag5
ag4
ag4
ag4
ag4
ag4
ag4
ag4
ag4
ag4
ag4
ag4
ag4
ag4
ag4
ag4
ag4
ag4
ag5
ag4
ag4
ag5
ag4
ag5
ag4
ag5
ag4
ag5
aa(lp94
g4
ag4
aS'W'
p95
ag4
ag3
ag4
ag3
ag4
ag4
ag4
ag4
ag4
ag4
ag3
ag4
ag5
ag4
ag4
ag3
ag4
ag4
ag4
ag4
ag4
ag4
ag4
ag4
ag4
ag4
ag4
ag4
ag4
ag4
ag4
ag4
ag4
ag5
ag4
ag4
ag4
ag4
ag4
ag4
ag4
ag4
ag4
ag4
ag4
ag4
ag4
ag4
ag4
ag4
ag4
ag5
ag4
ag4
ag5
ag4
ag5
ag4
ag5
ag4
ag5
aa(lp96
g4
ag4
aS'W'
p97
ag4
ag3
ag4
ag3
ag4
ag4
ag4
ag4
ag4
ag4
ag3
ag4
ag5
ag4
ag4
ag3
ag4
ag4
ag4
ag4
ag4
ag4
ag4
ag4
ag4
ag4
ag4
ag4
ag4
ag4
ag4
ag4
ag4
ag5
ag4
ag4
ag4
ag4
ag4
ag4
ag4
ag4
ag4
ag4
ag4
ag4
ag4
ag4
ag4
ag4
ag4
ag5
ag4
ag4
ag5
ag4
ag5
ag4
ag5
ag4
ag5
aaa(lp98
(lp99
g4
ag4
aS'W'
p100
ag4
ag3
ag4
ag3
ag4
ag4
ag4
ag4
ag4
ag4
ag3
ag4
ag5
ag4
ag4
ag3
ag4
ag4
ag4
ag4
ag4
ag4
ag4
ag4
ag4
ag4
ag4
ag4
ag4
ag4
ag4
ag4
ag4
ag5
ag4
ag4
ag4
ag4
ag4
ag4
ag4
ag4
ag4
ag4
ag4
ag4
ag4
ag4
ag4
ag4
ag4
ag5
ag4
ag4
ag5
ag4
ag5
ag4
ag5
ag4
ag5
aa(lp101
g4
ag4
ag100
ag4
ag4
ag4
ag3
ag4
ag4
ag4
ag4
ag3
ag4
ag3
ag4
ag5
ag4
ag4
ag3
ag4
ag4
ag4
ag4
ag4
ag4
ag4
ag4
ag4
ag4
ag4
ag4
ag4
ag4
ag4
ag4
ag4
ag5
ag4
ag4
ag4
ag4
ag4
ag4
ag4
ag4
ag4
ag4
ag4
ag4
ag4
ag4
ag4
ag4
ag4
ag5
ag4
ag4
ag5
ag4
ag5
ag4
ag5
ag4
ag5
aa(lp102
g4
ag4
ag100
ag4
ag3
ag4
ag3
ag4
ag4
ag4
ag4
ag4
ag4
ag3
ag4
ag5
ag4
ag4
ag4
ag4
ag4
ag4
ag4
ag4
ag4
ag4
ag4
ag3
ag4
ag4
ag4
ag4
ag4
ag4
ag4
ag4
ag5
ag4
ag4
ag4
ag4
ag4
ag4
ag4
ag4
ag4
ag4
ag4
ag4
ag4
ag4
ag4
ag4
ag4
ag5
ag4
ag4
ag5
ag4
ag5
ag4
ag5
ag4
ag5
aaa(lp103
(lp104
g4
ag4
ag100
ag4
ag3
ag4
ag3
ag4
ag4
ag4
ag4
ag4
ag4
ag4
ag4
ag5
ag4
ag4
ag3
ag4
ag3
ag4
ag4
ag4
ag4
ag4
ag4
ag4
ag4
ag4
ag4
ag4
ag4
ag4
ag4
ag4
ag5
ag4
ag4
ag4
ag4
ag4
ag4
ag4
ag4
ag4
ag4
ag4
ag4
ag4
ag4
ag4
ag4
ag4
ag5
ag4
ag4
ag5
ag4
ag5
ag4
ag5
ag4
ag5
aa(lp105
g4
ag4
ag100
ag4
ag3
ag4
ag3
ag4
ag4
ag4
ag4
ag4
ag4
ag4
ag4
ag5
ag4
ag4
ag3
ag4
ag3
ag4
ag4
ag4
ag4
ag4
ag4
ag5
ag4
ag4
ag4
ag4
ag4
ag4
ag4
ag4
ag4
ag4
ag4
ag4
ag4
ag4
ag4
ag4
ag4
ag4
ag4
ag4
ag4
ag4
ag4
ag4
ag4
ag4
ag5
ag4
ag4
ag5
ag4
ag5
ag4
ag5
ag4
ag5
aa(lp106
g4
ag4
ag100
ag4
ag3
ag4
ag3
ag4
ag4
ag4
ag4
ag4
ag4
ag4
ag4
ag5
ag4
ag4
ag3
ag4
ag3
ag4
ag4
ag4
ag4
ag4
ag4
ag4
ag4
ag4
ag4
ag4
ag4
ag4
ag4
ag4
ag5
ag4
ag4
ag4
ag4
ag4
ag4
ag4
ag4
ag4
ag4
ag4
ag4
ag4
ag5
ag4
ag4
ag4
ag5
ag4
ag4
ag4
ag4
ag5
ag4
ag5
ag4
ag5
aaa(lp107
(lp108
g4
ag4
ag100
ag4
ag3
ag4
ag3
ag4
ag4
ag4
ag4
ag4
ag4
ag4
ag4
ag5
ag4
ag4
ag3
ag4
ag3
ag4
ag4
ag4
ag4
ag4
ag4
ag4
ag4
ag4
ag4
ag4
ag4
ag4
ag4
ag4
ag5
ag4
ag4
ag4
ag4
ag4
ag4
ag4
ag4
ag4
ag4
ag4
ag4
ag4
ag4
ag4
ag5
ag4
ag5
ag4
ag4
ag5
ag4
ag4
ag4
ag5
ag4
ag5
aa(lp109
g4
ag4
ag100
ag4
ag3
ag4
ag3
ag4
ag4
ag4
ag4
ag4
ag4
ag4
ag4
ag5
ag4
ag4
ag3
ag4
ag4
ag4
ag4
ag4
ag4
ag4
ag4
ag3
ag4
ag4
ag4
ag4
ag4
ag4
ag4
ag4
ag5
ag4
ag4
ag4
ag4
ag4
ag4
ag4
ag4
ag4
ag4
ag4
ag4
ag4
ag4
ag4
ag5
ag4
ag5
ag4
ag4
ag5
ag4
ag4
ag4
ag5
ag4
ag5
aa(lp110
g4
ag4
ag100
ag4
ag3
ag4
ag3
ag4
ag4
ag4
ag4
ag4
ag4
ag4
ag4
ag5
ag4
ag4
ag3
ag4
ag4
ag4
ag4
ag4
ag4
ag4
ag4
ag3
ag4
ag4
ag4
ag4
ag4
ag4
ag4
ag4
ag5
ag4
ag4
ag4
ag4
ag4
ag4
ag4
ag4
ag4
ag4
ag4
ag4
ag4
ag4
ag4
ag5
ag4
ag5
ag4
ag4
ag5
ag4
ag4
ag4
ag5
ag4
ag5
aaa(lp111
(lp112
g4
ag4
ag100
ag4
ag3
ag4
ag3
ag4
ag4
ag4
ag4
ag4
ag4
ag4
ag4
ag5
ag4
ag4
ag3
ag4
ag4
ag4
ag4
ag4
ag4
ag4
ag4
ag3
ag4
ag4
ag4
ag4
ag4
ag4
ag4
ag4
ag5
ag4
ag4
ag4
ag4
ag4
ag4
ag4
ag4
ag4
ag4
ag4
ag4
ag4
ag4
ag4
ag5
ag4
ag5
ag4
ag4
ag5
ag4
ag4
ag4
ag5
ag4
ag5
aa(lp113
g4
ag4
ag100
ag4
ag3
ag4
ag3
ag4
ag4
ag4
ag4
ag4
ag4
ag4
ag4
ag5
ag4
ag4
ag3
ag4
ag4
ag4
ag4
ag4
ag4
ag4
ag4
ag3
ag4
ag4
ag4
ag4
ag4
ag4
ag4
ag4
ag5
ag4
ag4
ag4
ag4
ag4
ag4
ag4
ag4
ag4
ag4
ag4
ag4
ag4
ag5
ag4
ag5
ag4
ag5
ag4
ag4
ag4
ag4
ag4
ag4
ag5
ag4
ag5
aa(lp114
g4
ag4
ag100
ag4
ag3
ag4
ag3
ag4
ag4
ag4
ag4
ag4
ag4
ag4
ag4
ag5
ag4
ag4
ag3
ag4
ag4
ag4
ag4
ag4
ag4
ag4
ag4
ag3
ag4
ag4
ag4
ag4
ag4
ag4
ag4
ag4
ag5
ag4
ag4
ag4
ag4
ag4
ag4
ag4
ag4
ag4
ag4
ag4
ag4
ag4
ag5
ag4
ag5
ag4
ag5
ag4
ag4
ag4
ag4
ag4
ag4
ag5
ag4
ag5
aaa(lp115
(lp116
g4
ag4
ag4
ag4
ag3
ag4
ag3
ag4
ag4
ag4
ag4
ag100
ag4
ag4
ag4
ag5
ag4
ag4
ag3
ag4
ag4
ag4
ag4
ag4
ag4
ag4
ag4
ag3
ag4
ag4
ag4
ag4
ag4
ag4
ag4
ag4
ag5
ag4
ag4
ag4
ag4
ag4
ag4
ag4
ag4
ag4
ag4
ag4
ag4
ag4
ag4
ag4
ag5
ag4
ag5
ag4
ag4
ag5
ag4
ag4
ag4
ag5
ag4
ag5
aa(lp117
g4
ag4
ag4
ag4
ag3
ag4
ag3
ag4
ag4
ag4
ag4
ag100
ag4
ag4
ag4
ag5
ag4
ag4
ag3
ag4
ag4
ag4
ag4
ag4
ag4
ag4
ag4
ag4
ag4
ag4
ag4
ag4
ag4
ag4
ag4
ag4
ag4
ag4
ag4
ag4
ag4
ag4
ag4
ag4
ag4
ag4
ag4
ag4
ag4
ag4
ag4
ag4
ag4
ag4
ag5
ag4
ag4
ag5
ag4
aS'B'
p118
ag4
ag5
ag4
ag5
aa(lp119
g4
ag4
ag4
ag4
ag3
ag4
ag3
ag4
ag4
ag4
ag4
ag100
ag4
ag4
ag4
ag5
ag4
ag4
ag3
ag4
ag4
ag4
ag4
ag4
ag4
ag4
ag4
ag4
ag4
ag4
ag4
ag4
ag4
ag4
ag4
ag4
ag4
ag4
ag4
ag4
ag4
ag4
ag4
ag4
ag4
ag4
ag4
ag4
ag4
ag4
ag4
ag4
ag4
ag4
ag5
ag4
ag4
ag5
ag4
aS'B'
p120
ag4
ag5
ag4
ag5
aaa(lp121
(lp122
g4
ag4
ag4
ag4
ag3
ag4
ag3
ag4
ag4
ag4
ag4
ag100
ag4
ag4
ag4
ag5
ag4
ag4
ag3
ag4
ag4
ag4
ag4
ag4
ag4
ag4
ag4
ag4
ag4
ag4
ag4
ag4
ag4
ag4
ag4
ag4
ag4
ag4
ag4
ag4
ag4
ag4
ag4
ag4
ag4
ag4
ag4
ag4
ag4
ag4
ag4
ag4
ag4
ag4
ag5
ag4
ag4
ag5
ag4
aS'B'
p123
ag4
ag5
ag4
ag5
aa(lp124
g4
ag4
ag4
ag4
ag3
ag4
ag3
ag4
ag4
ag4
ag4
ag4
ag4
ag4
ag4
ag5
ag4
ag4
ag4
ag4
ag4
ag4
ag4
ag4
ag4
ag100
ag4
ag4
ag4
ag4
ag4
ag4
ag4
ag4
ag4
ag4
ag4
ag4
ag4
ag4
ag4
ag4
ag4
ag4
ag4
ag4
ag4
ag4
ag4
ag4
ag4
ag4
ag4
ag4
ag5
ag4
ag4
ag5
ag4
ag123
ag4
ag5
ag4
ag5
aa(lp125
g4
ag4
ag4
ag4
ag3
ag4
ag3
ag4
ag4
ag4
ag4
ag4
ag4
ag4
ag4
ag5
ag4
ag4
ag4
ag4
ag4
ag4
ag4
ag4
ag4
ag100
ag4
ag4
ag4
ag4
ag4
ag4
ag4
ag4
ag4
ag4
ag4
ag4
ag4
ag4
ag4
ag4
ag4
ag4
ag4
ag4
ag4
ag4
ag4
ag4
ag4
ag4
ag4
ag4
ag5
ag4
ag4
ag5
ag4
ag123
ag4
ag5
ag4
ag5
aaa(lp126
(lp127
g4
ag4
ag4
ag4
ag3
ag4
ag3
ag4
ag4
ag4
ag4
ag4
ag4
ag4
ag4
ag5
ag4
ag4
ag4
ag4
ag4
ag4
ag4
ag4
ag4
ag100
ag4
ag4
ag4
ag4
ag4
ag4
ag4
ag4
ag4
ag4
ag4
ag4
ag4
ag4
ag4
ag4
ag4
ag4
ag4
ag4
ag4
ag4
ag4
ag4
ag4
ag4
ag4
ag4
ag5
ag4
ag4
ag5
ag4
ag123
ag4
ag5
ag4
ag5
aa(lp128
g4
ag4
ag4
ag4
ag4
ag4
ag3
ag4
ag4
ag4
ag4
ag4
ag4
ag3
ag4
ag5
ag4
ag4
ag4
ag4
ag4
ag4
ag4
ag4
ag4
ag100
ag4
ag4
ag4
ag4
ag4
ag4
ag4
ag4
ag4
ag4
ag4
ag4
ag4
ag4
ag4
ag4
ag4
ag4
ag4
ag4
ag4
ag4
ag4
ag4
ag4
ag4
ag4
ag4
ag5
ag4
ag4
ag5
ag4
ag123
ag4
ag5
ag4
ag5
aa(lp129
g4
ag4
ag4
ag4
ag4
ag4
ag3
ag4
ag4
ag4
ag4
ag4
ag4
ag3
ag4
ag5
ag4
ag4
ag4
ag4
ag4
ag4
ag4
ag4
ag4
ag100
ag4
ag4
ag4
ag4
ag4
ag4
ag4
ag4
ag4
ag4
ag4
ag4
ag4
ag4
ag4
ag4
ag4
ag4
ag4
ag4
ag4
ag4
ag4
ag4
ag4
ag4
ag4
ag4
ag5
ag4
ag4
ag5
ag4
ag123
ag4
ag5
ag4
ag5
aaa(lp130
(lp131
g4
ag4
ag4
ag4
ag3
ag4
ag3
ag4
ag4
ag4
ag4
ag4
ag4
ag4
ag4
ag5
ag4
ag4
ag4
ag4
ag4
ag4
ag4
ag4
ag4
ag100
ag4
ag4
ag4
ag4
ag4
ag4
ag4
ag4
ag4
ag4
ag4
ag4
ag4
ag4
ag4
ag4
ag4
ag4
ag4
ag4
ag4
ag4
ag4
ag4
ag4
ag4
ag123
ag4
ag5
ag4
ag4
ag5
ag4
ag4
ag4
ag5
ag4
ag5
aa(lp132
g4
ag4
ag4
ag4
ag3
ag4
ag3
ag4
ag4
ag4
ag4
ag4
ag4
ag4
ag4
ag5
ag4
ag4
ag4
ag4
ag4
ag4
ag4
ag4
ag4
ag100
ag4
ag4
ag4
ag4
ag4
ag4
ag4
ag4
ag4
ag4
ag4
ag4
ag4
ag4
ag4
ag4
ag4
ag5
ag4
ag4
ag4
ag4
ag4
ag4
ag4
ag4
ag4
ag4
ag5
ag4
ag4
ag5
ag4
ag4
ag4
ag4
ag4
ag5
aa(lp133
g4
ag4
ag4
ag4
ag3
ag4
ag3
ag4
ag4
ag4
ag4
ag4
ag4
ag4
ag4
ag5
ag4
ag4
ag4
ag4
ag4
ag4
ag4
ag4
ag4
ag100
ag4
ag4
ag4
ag4
ag4
ag4
ag4
ag4
ag4
ag4
ag4
ag4
ag4
ag4
ag4
ag4
ag4
ag5
ag4
ag4
ag4
ag4
ag4
ag4
ag4
ag4
ag4
ag4
ag5
ag4
ag4
ag5
ag4
ag4
ag4
ag4
ag4
ag5
aaa(lp134
(lp135
g4
ag4
ag4
ag4
ag3
ag4
ag3
ag4
ag4
ag4
ag4
ag4
ag4
ag4
ag4
ag5
ag4
ag4
ag4
ag4
ag4
ag4
ag4
ag4
ag4
ag100
ag4
ag4
ag4
ag4
ag4
ag4
ag4
ag4
ag4
ag4
ag4
ag4
ag4
ag4
ag4
ag4
ag4
ag5
ag4
ag4
ag4
ag4
ag4
ag4
ag4
ag4
ag4
ag4
ag5
ag4
ag4
ag5
ag4
ag4
ag4
ag4
ag4
ag5
aa(lp136
g4
ag4
ag4
ag4
ag4
ag4
ag3
ag4
ag4
ag4
ag4
ag3
ag4
ag4
ag4
ag5
ag4
ag4
ag4
ag4
ag4
ag4
ag4
ag4
ag4
ag100
ag4
ag4
ag4
ag4
ag4
ag4
ag4
ag4
ag4
ag4
ag4
ag4
ag4
ag4
ag4
ag4
ag4
ag5
ag4
ag4
ag4
ag4
ag4
ag4
ag4
ag4
ag4
ag4
ag5
ag4
ag4
ag5
ag4
ag4
ag4
ag4
ag4
ag5
aa(lp137
g4
ag4
ag4
ag4
ag3
ag4
ag4
ag4
ag4
ag4
ag4
ag4
ag4
ag3
ag4
ag5
ag4
ag4
ag4
ag4
ag4
ag4
ag4
ag4
ag4
ag100
ag4
ag4
ag4
ag4
ag4
ag4
ag4
ag4
ag4
ag4
ag4
ag4
ag4
ag4
ag4
ag4
ag4
ag5
ag4
ag4
ag4
ag4
ag4
ag4
ag4
ag4
ag4
ag4
ag5
ag4
ag4
ag5
ag4
ag4
ag4
ag4
ag4
ag5
aaa(lp138
(lp139
g4
ag4
ag4
ag4
ag4
ag4
ag3
ag4
ag4
ag4
ag4
ag4
ag4
ag3
ag4
ag5
ag4
ag4
ag4
ag4
ag4
ag4
ag4
ag4
ag4
ag100
ag4
ag4
ag4
ag4
ag4
ag4
ag4
ag4
ag4
ag4
ag4
ag4
ag4
ag4
ag4
ag4
ag4
ag5
ag4
ag4
ag4
ag4
ag4
ag4
ag4
ag4
ag4
ag4
ag5
ag4
ag4
ag5
ag4
ag4
ag4
ag4
ag4
ag5
aa(lp140
g4
ag4
ag4
ag4
ag4
ag4
ag3
ag4
ag4
ag4
ag4
ag4
ag4
ag3
ag4
ag5
ag100
ag4
ag4
ag4
ag4
ag4
ag4
ag4
ag4
ag4
ag4
ag4
ag4
ag4
ag4
ag4
ag4
ag4
ag4
ag4
ag4
ag4
ag4
ag4
ag4
ag4
ag4
ag5
ag4
ag4
ag4
ag4
ag4
ag4
ag4
ag4
ag4
ag4
ag5
ag4
ag4
ag5
ag4
ag4
ag4
ag4
ag4
ag5
aa(lp141
g4
ag4
ag4
ag4
ag4
ag4
ag3
ag4
ag4
ag4
ag4
ag4
ag4
ag3
ag4
ag5
ag4
ag4
ag4
ag4
ag4
ag4
ag4
ag4
ag4
ag100
ag4
ag4
ag4
ag4
ag4
ag4
ag4
ag4
ag4
ag4
ag4
ag4
ag4
ag4
ag4
ag4
ag4
ag5
ag4
ag4
ag4
ag5
ag4
ag4
ag4
ag4
ag4
ag4
ag4
ag4
ag4
ag5
ag4
ag4
ag4
ag4
ag4
ag5
aaa(lp142
(lp143
g4
ag4
ag4
ag4
ag4
ag4
ag3
ag4
ag4
ag4
ag4
ag4
ag4
ag3
ag4
ag5
ag4
ag4
ag4
ag4
ag4
ag4
ag4
ag4
ag4
ag100
ag4
ag4
ag4
ag4
ag4
ag4
ag4
ag4
ag4
ag4
ag4
ag4
ag4
ag4
ag4
ag4
ag4
ag5
ag4
ag4
ag4
ag5
ag4
ag4
ag4
ag4
ag4
ag4
ag4
ag4
ag4
ag5
ag4
ag4
ag4
ag4
ag4
ag5
aa(lp144
g4
ag4
ag4
ag4
ag4
ag4
ag3
ag4
ag4
ag4
ag4
ag4
ag4
ag4
ag4
ag5
ag4
ag4
ag4
ag4
ag4
ag4
ag3
ag4
ag4
ag100
ag4
ag4
ag4
ag4
ag4
ag4
ag4
ag4
ag4
ag4
ag4
ag4
ag4
ag4
ag4
ag4
ag4
ag5
ag4
ag4
ag4
ag5
ag4
ag4
ag4
ag4
ag4
ag4
ag4
ag4
ag4
ag5
ag4
ag4
ag4
ag4
ag4
ag5
aa(lp145
g4
ag4
ag4
ag4
ag4
ag4
ag3
ag4
ag4
ag4
ag4
ag4
ag4
ag4
ag4
ag5
ag4
ag4
ag4
ag4
ag3
ag4
ag4
ag4
ag4
ag100
ag4
ag4
ag4
ag4
ag4
ag4
ag4
ag4
ag4
ag4
ag4
ag4
ag4
ag4
ag4
ag4
ag4
ag5
ag4
ag4
ag4
ag5
ag4
ag4
ag4
ag4
ag4
ag4
ag4
ag4
ag4
ag5
ag4
ag4
ag4
ag4
ag4
ag5
aaa.